; Function Attrs: mustprogress uwtable
define void @_ZN8LightGBM7Dataset6ReSizeEi(ptr noundef nonnull align 8 dereferenceable(864) %0, i32 noundef %1) local_unnamed_addr #3 align 2 personality ptr @__gxx_personality_v0 {
  %3 = alloca %"class.std::__exception_ptr::exception_ptr", align 8
  %4 = alloca %class.ThreadExceptionHelper, align 8
  %5 = tail call i32 @__kmpc_global_thread_num(ptr nonnull @2)
  %6 = getelementptr inbounds nuw i8, ptr %0, i64 88
  %7 = load i32, ptr %6, align 8, !tbaa !84
  %.not = icmp eq i32 %7, %1
  br i1 %.not, label %19, label %8

8:                                                ; preds = %2
  store i32 %1, ptr %6, align 8, !tbaa !84
  call void @llvm.lifetime.start.p0(i64 48, ptr nonnull %4) #20
  call void @llvm.memset.p0.i64(ptr noundef nonnull align 8 dereferenceable(48) %4, i8 0, i64 48, i1 false)
  %9 = invoke i32 @OMP_NUM_THREADS()
          to label %10 unwind label %17

10:                                               ; preds = %8
  tail call void @__kmpc_push_num_threads(ptr nonnull @2, i32 %5, i32 %9)
  call void (ptr, i32, ptr, ...) @__kmpc_fork_call(ptr nonnull @2, i32 2, ptr nonnull @_ZN8LightGBM7Dataset6ReSizeEi.omp_outlined, ptr nonnull %0, ptr nonnull %4)
  call void @llvm.lifetime.start.p0(i64 8, ptr nonnull %3)
  %11 = load ptr, ptr %4, align 8, !tbaa !192
  %.not.i = icmp eq ptr %11, null
  br i1 %.not.i, label %_ZN21ThreadExceptionHelperD2Ev.exit, label %_ZNSt15__exception_ptr13exception_ptrC2ERKS0_.exit.i

_ZNSt15__exception_ptr13exception_ptrC2ERKS0_.exit.i: ; preds = %10
  store ptr %11, ptr %3, align 8, !tbaa !192
  call void @_ZNSt15__exception_ptr13exception_ptr9_M_addrefEv(ptr noundef nonnull align 8 dereferenceable(8) %3) #20
  invoke void @_ZSt17rethrow_exceptionNSt15__exception_ptr13exception_ptrE(ptr noundef nonnull %3) #39
          to label %12 unwind label %13

12:                                               ; preds = %_ZNSt15__exception_ptr13exception_ptrC2ERKS0_.exit.i
  unreachable

13:                                               ; preds = %_ZNSt15__exception_ptr13exception_ptrC2ERKS0_.exit.i
  %14 = landingpad { ptr, i32 }
          cleanup
  %15 = load ptr, ptr %3, align 8, !tbaa !192
  %.not.i3.i = icmp eq ptr %15, null
  br i1 %.not.i3.i, label %.body, label %16

16:                                               ; preds = %13
  call void @_ZNSt15__exception_ptr13exception_ptr10_M_releaseEv(ptr noundef nonnull align 8 dereferenceable(8) %3) #20
  br label %.body

_ZN21ThreadExceptionHelperD2Ev.exit:              ; preds = %10
  call void @llvm.lifetime.end.p0(i64 8, ptr nonnull %3)
  call void @llvm.lifetime.end.p0(i64 48, ptr nonnull %4) #20
  br label %19

17:                                               ; preds = %8
  %18 = landingpad { ptr, i32 }
          cleanup
  br label %.body

.body:                                            ; preds = %13, %16, %17
  %eh.lpad-body = phi { ptr, i32 } [ %18, %17 ], [ %14, %16 ], [ %14, %13 ]
  call void @_ZN21ThreadExceptionHelperD2Ev(ptr noundef nonnull align 8 dereferenceable(48) %4) #20
  call void @llvm.lifetime.end.p0(i64 48, ptr nonnull %4) #20
  resume { ptr, i32 } %eh.lpad-body

19:                                               ; preds = %_ZN21ThreadExceptionHelperD2Ev.exit, %2
  ret void
}